target datalayout = "e-m:e-p270:32:32-p271:32:32-p272:64:64-i64:64-i128:128-f80:128-n8:16:32:64-S128"
target triple = "x86_64-pc-linux-gnu"

%struct.ssl_connection_st = type { %struct.ssl_st, ptr, i32, ptr, ptr, ptr, i32, ptr, i32, i32, i32, i32, %struct.OSSL_TIME, %struct.OSSL_TIME, %struct.ossl_statem_st, i32, ptr, ptr, i64, i64, i64, %struct.ossl_quic_tls_callbacks_st, ptr, ptr, %struct.anon, ptr, ptr, ptr, i32, ptr, %struct.ssl_dane_st, ptr, ptr, ptr, ptr, i32, [64 x i8], [64 x i8], [64 x i8], [64 x i8], [64 x i8], [64 x i8], [64 x i8], [64 x i8], [64 x i8], [64 x i8], [64 x i8], [64 x i8], ptr, [64 x i8], i64, i32, i64, [32 x i8], ptr, ptr, ptr, i64, ptr, [32 x i8], i64, i32, ptr, ptr, i32, i32, ptr, ptr, ptr, ptr, ptr, i64, ptr, ptr, i64, i32, i32, i32, i64, i32, i32, i64, i64, i64, %struct.anon.1, ptr, i32, ptr, ptr, ptr, i32, ptr, ptr, ptr, i32, i32, i32, i32, ptr, i64, i32, ptr, %struct.srp_ctx_st, ptr, %struct.record_layer_st, ptr, ptr, ptr, ptr, i64, i32, i32, i32, i64, i64, i64, ptr, ptr, ptr, ptr, ptr, i64, ptr, i64, ptr, i64 }
%struct.ssl_st = type { i32, ptr, ptr, ptr, %struct.CRYPTO_REF_COUNT, ptr, %struct.crypto_ex_data_st }
%struct.CRYPTO_REF_COUNT = type { i32 }
%struct.crypto_ex_data_st = type { ptr, ptr }
%struct.OSSL_TIME = type { i64 }
%struct.ossl_statem_st = type { i32, i32, i32, i32, i32, i32, i32, i32, i32, i32, i32, i32, i32, ptr, ptr, ptr, i8 }
%struct.ossl_quic_tls_callbacks_st = type { ptr, ptr, ptr, ptr, ptr, ptr }
%struct.anon = type { i64, [32 x i8], [32 x i8], ptr, ptr, i32, i32, i32, i32, [2 x i8], i32, i32, i32, i32, %struct.anon.0, [64 x i8], i64, [64 x i8], i64, i32, i32, ptr, i64, ptr, i64, i32, i8, i8, i16, ptr, i16 }
%struct.anon.0 = type { [128 x i8], i64, [128 x i8], i64, i64, i32, ptr, ptr, [4 x ptr], [4 x i16], i64, i32, ptr, i64, ptr, i64, ptr, ptr, ptr, i32, i64, ptr, i32, ptr, i64, ptr, i64, ptr, i64, ptr, ptr, ptr, ptr, i64, i64, ptr, ptr, i32, i32, i32, i32 }
%struct.ssl_dane_st = type { ptr, ptr, ptr, ptr, ptr, i32, i32, i32, i64 }
%struct.anon.1 = type { [29 x i8], ptr, ptr, ptr, i32, ptr, i16, i32, %struct.anon.2, i32, i32, i64, ptr, i64, ptr, i64, ptr, i64, ptr, i64, ptr, i64, ptr, ptr, ptr, ptr, ptr, ptr, ptr, i64, ptr, i64, i32, i32, i32, i32, ptr, i64, i32, i8, i32, [4 x i32], i32, i8, i8, i8, i8 }
%struct.anon.2 = type { ptr, ptr, ptr, i64 }
%struct.srp_ctx_st = type { ptr, ptr, ptr, ptr, ptr, ptr, ptr, ptr, ptr, ptr, ptr, ptr, ptr, ptr, i32, i64 }
%struct.record_layer_st = type { ptr, ptr, ptr, ptr, ptr, ptr, ptr, ptr, i64, i32, i64, [4 x i8], i64, i64, i8, ptr, i32, ptr, ptr, ptr, i64, i64, i64, i64, [32 x %struct.tls_record_st] }
%struct.tls_record_st = type { ptr, i32, i8, ptr, ptr, i64, i64, i16, [8 x i8] }
%struct.ssl_method_st = type { i32, i32, i64, ptr, ptr, ptr, ptr, ptr, ptr, ptr, ptr, ptr, ptr, ptr, ptr, ptr, ptr, ptr, ptr, ptr, ptr, ptr, ptr, ptr, ptr, ptr, ptr, ptr, ptr, ptr, ptr, ptr }

; Function Attrs: nounwind uwtable
define i32 @SSL_set_ssl_method(ptr noundef %0, ptr noundef %1) #0 {
  %3 = alloca i32, align 4
  %4 = alloca ptr, align 8
  %5 = alloca ptr, align 8
  %6 = alloca i32, align 4
  %7 = alloca ptr, align 8
  %8 = alloca i32, align 4
  %9 = alloca ptr, align 8
  %10 = alloca ptr, align 8
  store ptr %0, ptr %4, align 8, !tbaa !16
  store ptr %1, ptr %5, align 8, !tbaa !110
  call void @llvm.lifetime.start.p0(i64 4, ptr %6) #9
  store i32 1, ptr %6, align 4, !tbaa !14
  call void @llvm.lifetime.start.p0(i64 8, ptr %7) #9
  %11 = load ptr, ptr %4, align 8, !tbaa !16
  %12 = icmp eq ptr %11, null
  br i1 %12, label %13, label %14

13:                                               ; preds = %2
  br label %35

14:                                               ; preds = %2
  %15 = load ptr, ptr %4, align 8, !tbaa !16
  %16 = getelementptr inbounds nuw %struct.ssl_st, ptr %15, i32 0, i32 0
  %17 = load i32, ptr %16, align 8, !tbaa !29
  %18 = icmp eq i32 %17, 0
  br i1 %18, label %19, label %21

19:                                               ; preds = %14
  %20 = load ptr, ptr %4, align 8, !tbaa !16
  br label %33

21:                                               ; preds = %14
  %22 = load ptr, ptr %4, align 8, !tbaa !16
  %23 = getelementptr inbounds nuw %struct.ssl_st, ptr %22, i32 0, i32 0
  %24 = load i32, ptr %23, align 8, !tbaa !29
  %25 = and i32 %24, 128
  %26 = icmp ne i32 %25, 0
  br i1 %26, label %27, label %30

27:                                               ; preds = %21
  %28 = load ptr, ptr %4, align 8, !tbaa !16
  %29 = call ptr @ossl_quic_obj_get0_handshake_layer(ptr noundef %28)
  br label %31

30:                                               ; preds = %21
  br label %31

31:                                               ; preds = %30, %27
  %32 = phi ptr [ %29, %27 ], [ null, %30 ]
  br label %33

33:                                               ; preds = %31, %19
  %34 = phi ptr [ %20, %19 ], [ %32, %31 ]
  br label %35

35:                                               ; preds = %33, %13
  %36 = phi ptr [ null, %13 ], [ %34, %33 ]
  store ptr %36, ptr %7, align 8, !tbaa !3
  %37 = load ptr, ptr %7, align 8, !tbaa !3
  %38 = icmp eq ptr %37, null
  br i1 %38, label %67, label %39

39:                                               ; preds = %35
  %40 = load ptr, ptr %4, align 8, !tbaa !16
  %41 = getelementptr inbounds nuw %struct.ssl_st, ptr %40, i32 0, i32 0
  %42 = load i32, ptr %41, align 8, !tbaa !29
  %43 = icmp ne i32 %42, 0
  br i1 %43, label %44, label %50

44:                                               ; preds = %39
  %45 = load ptr, ptr %4, align 8, !tbaa !16
  %46 = getelementptr inbounds nuw %struct.ssl_st, ptr %45, i32 0, i32 3
  %47 = load ptr, ptr %46, align 8, !tbaa !18
  %48 = load ptr, ptr %5, align 8, !tbaa !110
  %49 = icmp ne ptr %47, %48
  br i1 %49, label %67, label %50

50:                                               ; preds = %44, %39
  %51 = load ptr, ptr %4, align 8, !tbaa !16
  %52 = getelementptr inbounds nuw %struct.ssl_st, ptr %51, i32 0, i32 0
  %53 = load i32, ptr %52, align 8, !tbaa !29
  %54 = icmp eq i32 %53, 0
  br i1 %54, label %55, label %68

55:                                               ; preds = %50
  %56 = load ptr, ptr %5, align 8, !tbaa !110
  %57 = call ptr @OSSL_QUIC_client_method()
  %58 = icmp eq ptr %56, %57
  br i1 %58, label %67, label %59

59:                                               ; preds = %55
  %60 = load ptr, ptr %5, align 8, !tbaa !110
  %61 = call ptr @OSSL_QUIC_client_thread_method()
  %62 = icmp eq ptr %60, %61
  br i1 %62, label %67, label %63

63:                                               ; preds = %59
  %64 = load ptr, ptr %5, align 8, !tbaa !110
  %65 = call ptr @OSSL_QUIC_server_method()
  %66 = icmp eq ptr %64, %65
  br i1 %66, label %67, label %68

67:                                               ; preds = %63, %59, %55, %44, %35
  store i32 0, ptr %3, align 4
  store i32 1, ptr %8, align 4
  br label %135

68:                                               ; preds = %63, %50
  %69 = load ptr, ptr %4, align 8, !tbaa !16
  %70 = getelementptr inbounds nuw %struct.ssl_st, ptr %69, i32 0, i32 3
  %71 = load ptr, ptr %70, align 8, !tbaa !18
  %72 = load ptr, ptr %5, align 8, !tbaa !110
  %73 = icmp ne ptr %71, %72
  br i1 %73, label %74, label %133

74:                                               ; preds = %68
  call void @llvm.lifetime.start.p0(i64 8, ptr %9) #9
  %75 = load ptr, ptr %4, align 8, !tbaa !16
  %76 = getelementptr inbounds nuw %struct.ssl_st, ptr %75, i32 0, i32 3
  %77 = load ptr, ptr %76, align 8, !tbaa !18
  store ptr %77, ptr %9, align 8, !tbaa !110
  call void @llvm.lifetime.start.p0(i64 8, ptr %10) #9
  %78 = load ptr, ptr %7, align 8, !tbaa !3
  %79 = getelementptr inbounds nuw %struct.ssl_connection_st, ptr %78, i32 0, i32 7
  %80 = load ptr, ptr %79, align 8, !tbaa !431
  store ptr %80, ptr %10, align 8, !tbaa !132
  %81 = load ptr, ptr %9, align 8, !tbaa !110
  %82 = getelementptr inbounds nuw %struct.ssl_method_st, ptr %81, i32 0, i32 0
  %83 = load i32, ptr %82, align 8, !tbaa !89
  %84 = load ptr, ptr %5, align 8, !tbaa !110
  %85 = getelementptr inbounds nuw %struct.ssl_method_st, ptr %84, i32 0, i32 0
  %86 = load i32, ptr %85, align 8, !tbaa !89
  %87 = icmp eq i32 %83, %86
  br i1 %87, label %88, label %92

88:                                               ; preds = %74
  %89 = load ptr, ptr %5, align 8, !tbaa !110
  %90 = load ptr, ptr %4, align 8, !tbaa !16
  %91 = getelementptr inbounds nuw %struct.ssl_st, ptr %90, i32 0, i32 3
  store ptr %89, ptr %91, align 8, !tbaa !18
  br label %107

92:                                               ; preds = %74
  %93 = load ptr, ptr %9, align 8, !tbaa !110
  %94 = getelementptr inbounds nuw %struct.ssl_method_st, ptr %93, i32 0, i32 8
  %95 = load ptr, ptr %94, align 8, !tbaa !106
  %96 = load ptr, ptr %4, align 8, !tbaa !16
  call void %95(ptr noundef %96)
  %97 = load ptr, ptr %5, align 8, !tbaa !110
  %98 = load ptr, ptr %4, align 8, !tbaa !16
  %99 = getelementptr inbounds nuw %struct.ssl_st, ptr %98, i32 0, i32 3
  store ptr %97, ptr %99, align 8, !tbaa !18
  %100 = load ptr, ptr %4, align 8, !tbaa !16
  %101 = getelementptr inbounds nuw %struct.ssl_st, ptr %100, i32 0, i32 3
  %102 = load ptr, ptr %101, align 8, !tbaa !18
  %103 = getelementptr inbounds nuw %struct.ssl_method_st, ptr %102, i32 0, i32 6
  %104 = load ptr, ptr %103, align 8, !tbaa !107
  %105 = load ptr, ptr %4, align 8, !tbaa !16
  %106 = call i32 %104(ptr noundef %105)
  store i32 %106, ptr %6, align 4, !tbaa !14
  br label %107

107:                                              ; preds = %92, %88
  %108 = load ptr, ptr %10, align 8, !tbaa !132
  %109 = load ptr, ptr %9, align 8, !tbaa !110
  %110 = getelementptr inbounds nuw %struct.ssl_method_st, ptr %109, i32 0, i32 10
  %111 = load ptr, ptr %110, align 8, !tbaa !435
  %112 = icmp eq ptr %108, %111
  br i1 %112, label %113, label %119

113:                                              ; preds = %107
  %114 = load ptr, ptr %5, align 8, !tbaa !110
  %115 = getelementptr inbounds nuw %struct.ssl_method_st, ptr %114, i32 0, i32 10
  %116 = load ptr, ptr %115, align 8, !tbaa !435
  %117 = load ptr, ptr %7, align 8, !tbaa !3
  %118 = getelementptr inbounds nuw %struct.ssl_connection_st, ptr %117, i32 0, i32 7
  store ptr %116, ptr %118, align 8, !tbaa !431
  br label %132

119:                                              ; preds = %107
  %120 = load ptr, ptr %10, align 8, !tbaa !132
  %121 = load ptr, ptr %9, align 8, !tbaa !110
  %122 = getelementptr inbounds nuw %struct.ssl_method_st, ptr %121, i32 0, i32 9
  %123 = load ptr, ptr %122, align 8, !tbaa !236
  %124 = icmp eq ptr %120, %123
  br i1 %124, label %125, label %131

125:                                              ; preds = %119
  %126 = load ptr, ptr %5, align 8, !tbaa !110
  %127 = getelementptr inbounds nuw %struct.ssl_method_st, ptr %126, i32 0, i32 9
  %128 = load ptr, ptr %127, align 8, !tbaa !236
  %129 = load ptr, ptr %7, align 8, !tbaa !3
  %130 = getelementptr inbounds nuw %struct.ssl_connection_st, ptr %129, i32 0, i32 7
  store ptr %128, ptr %130, align 8, !tbaa !431
  br label %131

131:                                              ; preds = %125, %119
  br label %132

132:                                              ; preds = %131, %113
  call void @llvm.lifetime.end.p0(i64 8, ptr %10) #9
  call void @llvm.lifetime.end.p0(i64 8, ptr %9) #9
  br label %133

133:                                              ; preds = %132, %68
  %134 = load i32, ptr %6, align 4, !tbaa !14
  store i32 %134, ptr %3, align 4
  store i32 1, ptr %8, align 4
  br label %135

135:                                              ; preds = %133, %67
  call void @llvm.lifetime.end.p0(i64 8, ptr %7) #9
  call void @llvm.lifetime.end.p0(i64 4, ptr %6) #9
  %136 = load i32, ptr %3, align 4
  ret i32 %136
}