; Function Attrs: nounwind uwtable
define i32 @SSL_set_ssl_method(ptr noundef %0, ptr noundef %1) local_unnamed_addr #0 {
  %3 = icmp eq ptr %0, null
  br i1 %3, label %.thread, label %4

4:                                                ; preds = %2
  %5 = load i32, ptr %0, align 8, !tbaa !19
  %6 = icmp eq i32 %5, 0
  br i1 %6, label %.thread50, label %7

7:                                                ; preds = %4
  %8 = and i32 %5, 128
  %.not = icmp eq i32 %8, 0
  br i1 %.not, label %.thread, label %9

9:                                                ; preds = %7
  %10 = tail call ptr @ossl_quic_obj_get0_handshake_layer(ptr noundef nonnull %0) #20
  %11 = icmp eq ptr %10, null
  br i1 %11, label %.thread, label %12

12:                                               ; preds = %9
  %.pr = load i32, ptr %0, align 8, !tbaa !19
  %.not43 = icmp eq i32 %.pr, 0
  br i1 %.not43, label %.thread50, label %13

13:                                               ; preds = %12
  %14 = getelementptr inbounds nuw i8, ptr %0, i64 24
  %15 = load ptr, ptr %14, align 8, !tbaa !3
  %.not44 = icmp eq ptr %15, %1
  br i1 %.not44, label %.thread52, label %.thread

.thread50:                                        ; preds = %12, %4
  %16 = phi ptr [ %0, %4 ], [ %10, %12 ]
  %17 = tail call ptr @OSSL_QUIC_client_method() #20
  %18 = icmp eq ptr %1, %17
  br i1 %18, label %.thread, label %19

19:                                               ; preds = %.thread50
  %20 = tail call ptr @OSSL_QUIC_client_thread_method() #20
  %21 = icmp eq ptr %1, %20
  br i1 %21, label %.thread, label %22

22:                                               ; preds = %19
  %23 = tail call ptr @OSSL_QUIC_server_method() #20
  %24 = icmp eq ptr %1, %23
  br i1 %24, label %.thread, label %..thread52_crit_edge

..thread52_crit_edge:                             ; preds = %22
  %.phi.trans.insert = getelementptr inbounds nuw i8, ptr %0, i64 24
  %.pre = load ptr, ptr %.phi.trans.insert, align 8, !tbaa !3
  br label %.thread52

.thread52:                                        ; preds = %..thread52_crit_edge, %13
  %25 = phi ptr [ %.pre, %..thread52_crit_edge ], [ %15, %13 ]
  %26 = phi ptr [ %16, %..thread52_crit_edge ], [ %10, %13 ]
  %27 = getelementptr inbounds nuw i8, ptr %0, i64 24
  %.not45 = icmp eq ptr %25, %1
  br i1 %.not45, label %.thread, label %28

28:                                               ; preds = %.thread52
  %29 = getelementptr inbounds nuw i8, ptr %26, i64 112
  %30 = load ptr, ptr %29, align 8, !tbaa !390
  %31 = load i32, ptr %25, align 8, !tbaa !82
  %32 = load i32, ptr %1, align 8, !tbaa !82
  %33 = icmp eq i32 %31, %32
  br i1 %33, label %34, label %35

34:                                               ; preds = %28
  store ptr %1, ptr %27, align 8, !tbaa !3
  br label %41

35:                                               ; preds = %28
  %36 = getelementptr inbounds nuw i8, ptr %25, i64 56
  %37 = load ptr, ptr %36, align 8, !tbaa !96
  tail call void %37(ptr noundef nonnull %0) #20
  store ptr %1, ptr %27, align 8, !tbaa !3
  %38 = getelementptr inbounds nuw i8, ptr %1, i64 40
  %39 = load ptr, ptr %38, align 8, !tbaa !97
  %40 = tail call i32 %39(ptr noundef nonnull %0) #20
  br label %41

41:                                               ; preds = %35, %34
  %.1 = phi i32 [ 1, %34 ], [ %40, %35 ]
  %42 = getelementptr inbounds nuw i8, ptr %25, i64 72
  %43 = load ptr, ptr %42, align 8, !tbaa !394
  %44 = icmp eq ptr %30, %43
  br i1 %44, label %.thread.sink.split, label %45

45:                                               ; preds = %41
  %46 = getelementptr inbounds nuw i8, ptr %25, i64 64
  %47 = load ptr, ptr %46, align 8, !tbaa !214
  %48 = icmp eq ptr %30, %47
  br i1 %48, label %.thread.sink.split, label %.thread

.thread.sink.split:                               ; preds = %45, %41
  %.sink = phi i64 [ 72, %41 ], [ 64, %45 ]
  %49 = getelementptr inbounds nuw i8, ptr %1, i64 %.sink
  %50 = load ptr, ptr %49, align 8, !tbaa !368
  store ptr %50, ptr %29, align 8, !tbaa !390
  br label %.thread

.thread:                                          ; preds = %.thread.sink.split, %7, %2, %.thread52, %45, %9, %13, %.thread50, %19, %22
  %.0 = phi i32 [ 0, %22 ], [ 0, %19 ], [ 0, %.thread50 ], [ 0, %13 ], [ 0, %9 ], [ 1, %.thread52 ], [ %.1, %45 ], [ 0, %2 ], [ 0, %7 ], [ %.1, %.thread.sink.split ]
  ret i32 %.0
}